target datalayout = "e-m:e-p270:32:32-p271:32:32-p272:64:64-i64:64-i128:128-f80:128-n8:16:32:64-S128"
target triple = "x86_64-pc-linux-gnu"

%struct._zend_phpdbg_globals = type { [11 x %struct._zend_array], %struct._zend_array, %struct._zend_array, ptr, ptr, %struct.phpdbg_frame_t, i32, ptr, %struct.phpdbg_lexer_data, ptr, %struct.sigaction, i32, i64, %struct.phpdbg_btree, %struct.phpdbg_btree, %struct._zend_array, %struct._zend_array, %struct._zend_array, %struct._zend_array, ptr, ptr, ptr, i8, ptr, ptr, ptr, i64, ptr, %struct._zval_struct, i32, i32, i8, i8, ptr, ptr, ptr, %struct._zend_array, ptr, ptr, ptr, [3 x %struct.anon.8], ptr, %struct.anon.9, i64, [2 x ptr], [3 x ptr], ptr, i8, ptr, ptr, [500 x i8], i32, %struct.phpdbg_signal_safe_mem, ptr, i64, ptr, i64 }
%struct.phpdbg_frame_t = type { i32, ptr, ptr }
%struct.phpdbg_lexer_data = type { i32, ptr, ptr, ptr, ptr, i32 }
%struct.sigaction = type { %union.anon.2, %struct.__sigset_t, i32, ptr }
%union.anon.2 = type { ptr }
%struct.__sigset_t = type { [16 x i64] }
%struct.phpdbg_btree = type { i64, i64, i8, ptr }
%struct._zval_struct = type { %union._zend_value, %union.anon.4, %union.anon.7 }
%union._zend_value = type { i64 }
%union.anon.4 = type { i32 }
%union.anon.7 = type { i32 }
%struct._zend_array = type { %struct._zend_refcounted_h, %union.anon.0, i32, %union.anon.1, i32, i32, i32, i32, i64, ptr }
%struct._zend_refcounted_h = type { i32, %union.anon }
%union.anon = type { i32 }
%union.anon.0 = type { i32 }
%union.anon.1 = type { ptr }
%struct.anon.8 = type { i32 }
%struct.anon.9 = type { i8, i32, i32, ptr, i32 }
%struct.phpdbg_signal_safe_mem = type { ptr, i8, ptr, ptr }
%struct._zend_string = type { %struct._zend_refcounted_h, i64, i64, [1 x i8] }
%struct._zend_auto_global = type { ptr, ptr, i8, i8 }

@phpdbg_globals = external global %struct._zend_phpdbg_globals, align 8
@.str.83 = private unnamed_addr constant [56 x i8] c"Cannot show information about superglobal variable %.*s\00", align 1

; Function Attrs: nounwind uwtable
define internal i32 @phpdbg_arm_auto_global(ptr noundef %0) #0 {
  %2 = alloca ptr, align 8
  %3 = alloca ptr, align 8
  store ptr %0, ptr %2, align 8, !tbaa !47
  call void @llvm.lifetime.start.p0(i64 8, ptr %3) #8
  %4 = load ptr, ptr %2, align 8, !tbaa !47
  %5 = getelementptr inbounds nuw %struct._zval_struct, ptr %4, i32 0, i32 0
  %6 = load ptr, ptr %5, align 8, !tbaa !43
  store ptr %6, ptr %3, align 8, !tbaa !152
  %7 = load ptr, ptr %3, align 8, !tbaa !152
  %8 = getelementptr inbounds nuw %struct._zend_auto_global, ptr %7, i32 0, i32 3
  %9 = load i8, ptr %8, align 1, !tbaa !154, !range !120, !noundef !121
  %10 = trunc i8 %9 to i1
  br i1 %10, label %11, label %41

11:                                               ; preds = %1
  %12 = load i64, ptr getelementptr inbounds nuw (%struct._zend_phpdbg_globals, ptr @phpdbg_globals, i32 0, i32 54), align 8, !tbaa !133
  %13 = and i64 %12, 2147483648
  %14 = icmp ne i64 %13, 0
  br i1 %14, label %15, label %29

15:                                               ; preds = %11
  %16 = load i32, ptr getelementptr inbounds ([3 x %struct.anon.8], ptr getelementptr inbounds nuw (%struct._zend_phpdbg_globals, ptr @phpdbg_globals, i32 0, i32 40), i64 0, i64 1), align 4, !tbaa !40
  %17 = load ptr, ptr %3, align 8, !tbaa !152
  %18 = getelementptr inbounds nuw %struct._zend_auto_global, ptr %17, i32 0, i32 0
  %19 = load ptr, ptr %18, align 8, !tbaa !156
  %20 = getelementptr inbounds nuw %struct._zend_string, ptr %19, i32 0, i32 2
  %21 = load i64, ptr %20, align 8, !tbaa !117
  %22 = trunc i64 %21 to i32
  %23 = load ptr, ptr %3, align 8, !tbaa !152
  %24 = getelementptr inbounds nuw %struct._zend_auto_global, ptr %23, i32 0, i32 0
  %25 = load ptr, ptr %24, align 8, !tbaa !156
  %26 = getelementptr inbounds nuw %struct._zend_string, ptr %25, i32 0, i32 3
  %27 = getelementptr inbounds [1 x i8], ptr %26, i64 0, i64 0
  %28 = call i32 (i32, i32, ptr, ...) @phpdbg_print(i32 noundef 2, i32 noundef %16, ptr noundef @.str.83, i32 noundef %22, ptr noundef %27)
  br label %40

29:                                               ; preds = %11
  %30 = load ptr, ptr %3, align 8, !tbaa !152
  %31 = getelementptr inbounds nuw %struct._zend_auto_global, ptr %30, i32 0, i32 1
  %32 = load ptr, ptr %31, align 8, !tbaa !157
  %33 = load ptr, ptr %3, align 8, !tbaa !152
  %34 = getelementptr inbounds nuw %struct._zend_auto_global, ptr %33, i32 0, i32 0
  %35 = load ptr, ptr %34, align 8, !tbaa !156
  %36 = call zeroext i1 %32(ptr noundef %35)
  %37 = load ptr, ptr %3, align 8, !tbaa !152
  %38 = getelementptr inbounds nuw %struct._zend_auto_global, ptr %37, i32 0, i32 3
  %39 = zext i1 %36 to i8
  store i8 %39, ptr %38, align 1, !tbaa !154
  br label %40

40:                                               ; preds = %29, %15
  br label %41

41:                                               ; preds = %40, %1
  call void @llvm.lifetime.end.p0(i64 8, ptr %3) #8
  ret i32 0
}