; Function Attrs: nounwind uwtable
define internal noundef i32 @phpdbg_arm_auto_global(ptr noundef readonly captures(none) %0) #0 {
  %2 = load ptr, ptr %0, align 8, !tbaa !41
  %3 = getelementptr inbounds nuw i8, ptr %2, i64 17
  %4 = load i8, ptr %3, align 1, !tbaa !132, !range !111, !noundef !112
  %5 = trunc nuw i8 %4 to i1
  br i1 %5, label %6, label %23

6:                                                ; preds = %1
  %7 = load i64, ptr getelementptr inbounds nuw (i8, ptr @phpdbg_globals, i64 2184), align 8, !tbaa !118
  %8 = and i64 %7, 2147483648
  %.not = icmp eq i64 %8, 0
  br i1 %.not, label %17, label %9

9:                                                ; preds = %6
  %10 = load i32, ptr getelementptr inbounds nuw (i8, ptr @phpdbg_globals, i64 1508), align 4, !tbaa !38
  %11 = load ptr, ptr %2, align 8, !tbaa !134
  %12 = getelementptr inbounds nuw i8, ptr %11, i64 16
  %13 = load i64, ptr %12, align 8, !tbaa !84
  %14 = trunc i64 %13 to i32
  %15 = getelementptr inbounds nuw i8, ptr %11, i64 24
  %16 = tail call i32 (i32, i32, ptr, ...) @phpdbg_print(i32 noundef 2, i32 noundef %10, ptr noundef nonnull @.str.83, i32 noundef %14, ptr noundef nonnull %15) #6
  br label %23

17:                                               ; preds = %6
  %18 = getelementptr inbounds nuw i8, ptr %2, i64 8
  %19 = load ptr, ptr %18, align 8, !tbaa !135
  %20 = load ptr, ptr %2, align 8, !tbaa !134
  %21 = tail call zeroext i1 %19(ptr noundef %20) #6
  %22 = zext i1 %21 to i8
  store i8 %22, ptr %3, align 1, !tbaa !132
  br label %23

23:                                               ; preds = %9, %17, %1
  ret i32 0
}